target datalayout = "e-m:e-p270:32:32-p271:32:32-p272:64:64-i64:64-i128:128-f80:128-n8:16:32:64-S128"
target triple = "x86_64-pc-linux-gnu"

%"class.pxrInternal_v0_24__pxrReserved__::PcpExpressionVariablesSource" = type { %"class.std::shared_ptr" }
%"class.std::shared_ptr" = type { %"class.std::__shared_ptr" }
%"class.std::__shared_ptr" = type { ptr, %"class.std::__shared_count" }
%"class.std::__shared_count" = type { ptr }

; Function Attrs: mustprogress nounwind uwtable
define linkonce_odr noundef ptr @_ZNKSt12__shared_ptrIN32pxrInternal_v0_24__pxrReserved__23PcpLayerStackIdentifierELN9__gnu_cxx12_Lock_policyE2EE3getEv(ptr noundef nonnull align 8 dereferenceable(16) %0) #0 comdat align 2 {
  %2 = alloca ptr, align 8
  store ptr %0, ptr %2, align 8
  %3 = load ptr, ptr %2, align 8
  %4 = getelementptr inbounds nuw %"class.std::__shared_ptr", ptr %3, i32 0, i32 0
  %5 = load ptr, ptr %4, align 8
  ret ptr %5
}

; Function Attrs: mustprogress nounwind uwtable
define linkonce_odr noundef ptr @_ZNKSt19__shared_ptr_accessIN32pxrInternal_v0_24__pxrReserved__23PcpLayerStackIdentifierELN9__gnu_cxx12_Lock_policyE2ELb0ELb0EE6_M_getEv(ptr noundef nonnull align 1 dereferenceable(1) %0) #0 comdat align 2 {
  %2 = alloca ptr, align 8
  store ptr %0, ptr %2, align 8
  %3 = load ptr, ptr %2, align 8
  %4 = call noundef ptr @_ZNKSt12__shared_ptrIN32pxrInternal_v0_24__pxrReserved__23PcpLayerStackIdentifierELN9__gnu_cxx12_Lock_policyE2EE3getEv(ptr noundef nonnull align 8 dereferenceable(16) %3) #9
  ret ptr %4
}

; Function Attrs: mustprogress nounwind uwtable
define linkonce_odr noundef nonnull align 8 dereferenceable(80) ptr @_ZNKSt19__shared_ptr_accessIN32pxrInternal_v0_24__pxrReserved__23PcpLayerStackIdentifierELN9__gnu_cxx12_Lock_policyE2ELb0ELb0EEdeEv(ptr noundef nonnull align 1 dereferenceable(1) %0) #0 comdat align 2 {
  %2 = alloca ptr, align 8
  store ptr %0, ptr %2, align 8
  %3 = load ptr, ptr %2, align 8
  br label %4

4:                                                ; preds = %1
  br label %5

5:                                                ; preds = %4
  br label %6

6:                                                ; preds = %5
  %7 = call noundef ptr @_ZNKSt19__shared_ptr_accessIN32pxrInternal_v0_24__pxrReserved__23PcpLayerStackIdentifierELN9__gnu_cxx12_Lock_policyE2ELb0ELb0EE6_M_getEv(ptr noundef nonnull align 1 dereferenceable(1) %3) #9
  ret ptr %7
}

; Function Attrs: mustprogress nounwind uwtable
define linkonce_odr noundef zeroext i1 @_ZNKSt12__shared_ptrIN32pxrInternal_v0_24__pxrReserved__23PcpLayerStackIdentifierELN9__gnu_cxx12_Lock_policyE2EEcvbEv(ptr noundef nonnull align 8 dereferenceable(16) %0) #0 comdat align 2 {
  %2 = alloca ptr, align 8
  store ptr %0, ptr %2, align 8
  %3 = load ptr, ptr %2, align 8
  %4 = getelementptr inbounds nuw %"class.std::__shared_ptr", ptr %3, i32 0, i32 0
  %5 = load ptr, ptr %4, align 8
  %6 = icmp ne ptr %5, null
  ret i1 %6
}

; Function Attrs: mustprogress uwtable
define noundef zeroext i1 @_ZNK32pxrInternal_v0_24__pxrReserved__28PcpExpressionVariablesSourceltERKS0_(ptr noundef nonnull align 8 dereferenceable(16) %0, ptr noundef nonnull align 8 dereferenceable(16) %1) #1 align 2 {
  %3 = alloca i1, align 1
  %4 = alloca ptr, align 8
  %5 = alloca ptr, align 8
  %6 = alloca i8, align 1
  %7 = alloca i8, align 1
  store ptr %0, ptr %4, align 8
  store ptr %1, ptr %5, align 8
  %8 = load ptr, ptr %4, align 8
  %9 = getelementptr inbounds nuw %"class.pxrInternal_v0_24__pxrReserved__::PcpExpressionVariablesSource", ptr %8, i32 0, i32 0
  %10 = call noundef zeroext i1 @_ZNKSt12__shared_ptrIN32pxrInternal_v0_24__pxrReserved__23PcpLayerStackIdentifierELN9__gnu_cxx12_Lock_policyE2EEcvbEv(ptr noundef nonnull align 8 dereferenceable(16) %9) #9
  %11 = zext i1 %10 to i8
  store i8 %11, ptr %6, align 1
  %12 = load ptr, ptr %5, align 8
  %13 = getelementptr inbounds nuw %"class.pxrInternal_v0_24__pxrReserved__::PcpExpressionVariablesSource", ptr %12, i32 0, i32 0
  %14 = call noundef zeroext i1 @_ZNKSt12__shared_ptrIN32pxrInternal_v0_24__pxrReserved__23PcpLayerStackIdentifierELN9__gnu_cxx12_Lock_policyE2EEcvbEv(ptr noundef nonnull align 8 dereferenceable(16) %13) #9
  %15 = zext i1 %14 to i8
  store i8 %15, ptr %7, align 1
  %16 = load i8, ptr %6, align 1
  %17 = trunc i8 %16 to i1
  br i1 %17, label %18, label %28

18:                                               ; preds = %2
  %19 = load i8, ptr %7, align 1
  %20 = trunc i8 %19 to i1
  br i1 %20, label %21, label %28

21:                                               ; preds = %18
  %22 = getelementptr inbounds nuw %"class.pxrInternal_v0_24__pxrReserved__::PcpExpressionVariablesSource", ptr %8, i32 0, i32 0
  %23 = call noundef nonnull align 8 dereferenceable(80) ptr @_ZNKSt19__shared_ptr_accessIN32pxrInternal_v0_24__pxrReserved__23PcpLayerStackIdentifierELN9__gnu_cxx12_Lock_policyE2ELb0ELb0EEdeEv(ptr noundef nonnull align 1 dereferenceable(1) %22) #9
  %24 = load ptr, ptr %5, align 8
  %25 = getelementptr inbounds nuw %"class.pxrInternal_v0_24__pxrReserved__::PcpExpressionVariablesSource", ptr %24, i32 0, i32 0
  %26 = call noundef nonnull align 8 dereferenceable(80) ptr @_ZNKSt19__shared_ptr_accessIN32pxrInternal_v0_24__pxrReserved__23PcpLayerStackIdentifierELN9__gnu_cxx12_Lock_policyE2ELb0ELb0EEdeEv(ptr noundef nonnull align 1 dereferenceable(1) %25) #9
  %27 = call noundef zeroext i1 @_ZNK32pxrInternal_v0_24__pxrReserved__23PcpLayerStackIdentifierltERKS0_(ptr noundef nonnull align 8 dereferenceable(80) %23, ptr noundef nonnull align 8 dereferenceable(80) %26)
  store i1 %27, ptr %3, align 1
  br label %36

28:                                               ; preds = %18, %2
  %29 = load i8, ptr %6, align 1
  %30 = trunc i8 %29 to i1
  %31 = zext i1 %30 to i32
  %32 = load i8, ptr %7, align 1
  %33 = trunc i8 %32 to i1
  %34 = zext i1 %33 to i32
  %35 = icmp slt i32 %31, %34
  store i1 %35, ptr %3, align 1
  br label %36

36:                                               ; preds = %28, %21
  %37 = load i1, ptr %3, align 1
  ret i1 %37
}