; Function Attrs: mustprogress uwtable
define noundef zeroext i1 @_ZNK32pxrInternal_v0_24__pxrReserved__28PcpExpressionVariablesSourceltERKS0_(ptr noundef nonnull readonly align 8 captures(none) dereferenceable(16) %0, ptr noundef nonnull readonly align 8 captures(none) dereferenceable(16) %1) local_unnamed_addr #1 align 2 {
  %3 = load ptr, ptr %0, align 8
  %.not8 = icmp eq ptr %3, null
  %4 = load ptr, ptr %1, align 8
  %5 = icmp ne ptr %4, null
  %.not7 = xor i1 %5, true
  %brmerge = or i1 %.not8, %.not7
  br i1 %brmerge, label %8, label %6

6:                                                ; preds = %2
  %7 = tail call noundef zeroext i1 @_ZNK32pxrInternal_v0_24__pxrReserved__23PcpLayerStackIdentifierltERKS0_(ptr noundef nonnull align 8 dereferenceable(80) %3, ptr noundef nonnull align 8 dereferenceable(80) %4)
  br label %10

8:                                                ; preds = %2
  %9 = and i1 %.not8, %5
  br label %10

10:                                               ; preds = %8, %6
  %.0 = phi i1 [ %7, %6 ], [ %9, %8 ]
  ret i1 %.0
}